target datalayout = "e-m:e-p270:32:32-p271:32:32-p272:64:64-i64:64-i128:128-f80:128-n8:16:32:64-S128"
target triple = "x86_64-pc-linux-gnu"

%struct.Cut_OracleStruct_t_ = type { ptr, ptr, i32, ptr, ptr, ptr, ptr, ptr, ptr, ptr, i32, i32, i64, i32, i32 }
%struct.Vec_Ptr_t_ = type { i32, i32, ptr }
%struct.Vec_Int_t_ = type { i32, i32, ptr }

@.str.1 = private unnamed_addr constant [41 x i8] c"Cut computation statistics with oracle:\0A\00", align 1
@.str.2 = private unnamed_addr constant [42 x i8] c"Current cuts      = %8d. (Trivial = %d.)\0A\00", align 1
@.str.3 = private unnamed_addr constant [5 x i8] c"%s =\00", align 1
@.str.4 = private unnamed_addr constant [12 x i8] c"Total time \00", align 1
@.str.5 = private unnamed_addr constant [11 x i8] c"%9.2f sec\0A\00", align 1

; Function Attrs: inlinehint nounwind uwtable
define internal void @Vec_IntFree(ptr noundef %0) #4 {
  %2 = alloca ptr, align 8
  store ptr %0, ptr %2, align 8, !tbaa !54
  %3 = load ptr, ptr %2, align 8, !tbaa !54
  %4 = getelementptr inbounds nuw %struct.Vec_Int_t_, ptr %3, i32 0, i32 2
  %5 = load ptr, ptr %4, align 8, !tbaa !55
  %6 = icmp ne ptr %5, null
  br i1 %6, label %7, label %13

7:                                                ; preds = %1
  %8 = load ptr, ptr %2, align 8, !tbaa !54
  %9 = getelementptr inbounds nuw %struct.Vec_Int_t_, ptr %8, i32 0, i32 2
  %10 = load ptr, ptr %9, align 8, !tbaa !55
  call void @free(ptr noundef %10) #10
  %11 = load ptr, ptr %2, align 8, !tbaa !54
  %12 = getelementptr inbounds nuw %struct.Vec_Int_t_, ptr %11, i32 0, i32 2
  store ptr null, ptr %12, align 8, !tbaa !55
  br label %14

13:                                               ; preds = %1
  br label %14

14:                                               ; preds = %13, %7
  %15 = load ptr, ptr %2, align 8, !tbaa !54
  %16 = icmp ne ptr %15, null
  br i1 %16, label %17, label %19

17:                                               ; preds = %14
  %18 = load ptr, ptr %2, align 8, !tbaa !54
  call void @free(ptr noundef %18) #10
  store ptr null, ptr %2, align 8, !tbaa !54
  br label %20

19:                                               ; preds = %14
  br label %20

20:                                               ; preds = %19, %17
  ret void
}

; Function Attrs: inlinehint nounwind uwtable
define internal void @Vec_PtrFree(ptr noundef %0) #4 {
  %2 = alloca ptr, align 8
  store ptr %0, ptr %2, align 8, !tbaa !38
  %3 = load ptr, ptr %2, align 8, !tbaa !38
  %4 = getelementptr inbounds nuw %struct.Vec_Ptr_t_, ptr %3, i32 0, i32 2
  %5 = load ptr, ptr %4, align 8, !tbaa !42
  %6 = icmp ne ptr %5, null
  br i1 %6, label %7, label %13

7:                                                ; preds = %1
  %8 = load ptr, ptr %2, align 8, !tbaa !38
  %9 = getelementptr inbounds nuw %struct.Vec_Ptr_t_, ptr %8, i32 0, i32 2
  %10 = load ptr, ptr %9, align 8, !tbaa !42
  call void @free(ptr noundef %10) #10
  %11 = load ptr, ptr %2, align 8, !tbaa !38
  %12 = getelementptr inbounds nuw %struct.Vec_Ptr_t_, ptr %11, i32 0, i32 2
  store ptr null, ptr %12, align 8, !tbaa !42
  br label %14

13:                                               ; preds = %1
  br label %14

14:                                               ; preds = %13, %7
  %15 = load ptr, ptr %2, align 8, !tbaa !38
  %16 = icmp ne ptr %15, null
  br i1 %16, label %17, label %19

17:                                               ; preds = %14
  %18 = load ptr, ptr %2, align 8, !tbaa !38
  call void @free(ptr noundef %18) #10
  store ptr null, ptr %2, align 8, !tbaa !38
  br label %20

19:                                               ; preds = %14
  br label %20

20:                                               ; preds = %19, %17
  ret void
}

; Function Attrs: nounwind uwtable
define void @Cut_OracleStop(ptr noundef %0) #0 {
  %2 = alloca ptr, align 8
  store ptr %0, ptr %2, align 8, !tbaa !8
  %3 = call i32 (ptr, ...) @printf(ptr noundef @.str.1)
  %4 = load ptr, ptr %2, align 8, !tbaa !8
  %5 = getelementptr inbounds nuw %struct.Cut_OracleStruct_t_, ptr %4, i32 0, i32 13
  %6 = load i32, ptr %5, align 8, !tbaa !46
  %7 = load ptr, ptr %2, align 8, !tbaa !8
  %8 = getelementptr inbounds nuw %struct.Cut_OracleStruct_t_, ptr %7, i32 0, i32 14
  %9 = load i32, ptr %8, align 4, !tbaa !47
  %10 = sub nsw i32 %6, %9
  %11 = load ptr, ptr %2, align 8, !tbaa !8
  %12 = getelementptr inbounds nuw %struct.Cut_OracleStruct_t_, ptr %11, i32 0, i32 14
  %13 = load i32, ptr %12, align 4, !tbaa !47
  %14 = call i32 (ptr, ...) @printf(ptr noundef @.str.2, i32 noundef %10, i32 noundef %13)
  call void (i32, ptr, ...) @Abc_Print(i32 noundef 1, ptr noundef @.str.3, ptr noundef @.str.4)
  %15 = load ptr, ptr %2, align 8, !tbaa !8
  %16 = getelementptr inbounds nuw %struct.Cut_OracleStruct_t_, ptr %15, i32 0, i32 12
  %17 = load i64, ptr %16, align 8, !tbaa !48
  %18 = sitofp i64 %17 to double
  %19 = fmul double 1.000000e+00, %18
  %20 = fdiv double %19, 1.000000e+06
  call void (i32, ptr, ...) @Abc_Print(i32 noundef 1, ptr noundef @.str.5, double noundef %20)
  %21 = load ptr, ptr %2, align 8, !tbaa !8
  %22 = getelementptr inbounds nuw %struct.Cut_OracleStruct_t_, ptr %21, i32 0, i32 4
  %23 = load ptr, ptr %22, align 8, !tbaa !30
  %24 = icmp ne ptr %23, null
  br i1 %24, label %25, label %29

25:                                               ; preds = %1
  %26 = load ptr, ptr %2, align 8, !tbaa !8
  %27 = getelementptr inbounds nuw %struct.Cut_OracleStruct_t_, ptr %26, i32 0, i32 4
  %28 = load ptr, ptr %27, align 8, !tbaa !30
  call void @Vec_PtrFree(ptr noundef %28)
  br label %29

29:                                               ; preds = %25, %1
  %30 = load ptr, ptr %2, align 8, !tbaa !8
  %31 = getelementptr inbounds nuw %struct.Cut_OracleStruct_t_, ptr %30, i32 0, i32 5
  %32 = load ptr, ptr %31, align 8, !tbaa !31
  %33 = icmp ne ptr %32, null
  br i1 %33, label %34, label %38

34:                                               ; preds = %29
  %35 = load ptr, ptr %2, align 8, !tbaa !8
  %36 = getelementptr inbounds nuw %struct.Cut_OracleStruct_t_, ptr %35, i32 0, i32 5
  %37 = load ptr, ptr %36, align 8, !tbaa !31
  call void @Vec_PtrFree(ptr noundef %37)
  br label %38

38:                                               ; preds = %34, %29
  %39 = load ptr, ptr %2, align 8, !tbaa !8
  %40 = getelementptr inbounds nuw %struct.Cut_OracleStruct_t_, ptr %39, i32 0, i32 3
  %41 = load ptr, ptr %40, align 8, !tbaa !29
  %42 = icmp ne ptr %41, null
  br i1 %42, label %43, label %47

43:                                               ; preds = %38
  %44 = load ptr, ptr %2, align 8, !tbaa !8
  %45 = getelementptr inbounds nuw %struct.Cut_OracleStruct_t_, ptr %44, i32 0, i32 3
  %46 = load ptr, ptr %45, align 8, !tbaa !29
  call void @Vec_PtrFree(ptr noundef %46)
  br label %47

47:                                               ; preds = %43, %38
  %48 = load ptr, ptr %2, align 8, !tbaa !8
  %49 = getelementptr inbounds nuw %struct.Cut_OracleStruct_t_, ptr %48, i32 0, i32 1
  %50 = load ptr, ptr %49, align 8, !tbaa !49
  %51 = icmp ne ptr %50, null
  br i1 %51, label %52, label %56

52:                                               ; preds = %47
  %53 = load ptr, ptr %2, align 8, !tbaa !8
  %54 = getelementptr inbounds nuw %struct.Cut_OracleStruct_t_, ptr %53, i32 0, i32 1
  %55 = load ptr, ptr %54, align 8, !tbaa !49
  call void @Vec_IntFree(ptr noundef %55)
  br label %56

56:                                               ; preds = %52, %47
  %57 = load ptr, ptr %2, align 8, !tbaa !8
  %58 = getelementptr inbounds nuw %struct.Cut_OracleStruct_t_, ptr %57, i32 0, i32 6
  %59 = load ptr, ptr %58, align 8, !tbaa !22
  %60 = icmp ne ptr %59, null
  br i1 %60, label %61, label %65

61:                                               ; preds = %56
  %62 = load ptr, ptr %2, align 8, !tbaa !8
  %63 = getelementptr inbounds nuw %struct.Cut_OracleStruct_t_, ptr %62, i32 0, i32 6
  %64 = load ptr, ptr %63, align 8, !tbaa !22
  call void @Vec_IntFree(ptr noundef %64)
  br label %65

65:                                               ; preds = %61, %56
  %66 = load ptr, ptr %2, align 8, !tbaa !8
  %67 = getelementptr inbounds nuw %struct.Cut_OracleStruct_t_, ptr %66, i32 0, i32 7
  %68 = load ptr, ptr %67, align 8, !tbaa !24
  %69 = icmp ne ptr %68, null
  br i1 %69, label %70, label %74

70:                                               ; preds = %65
  %71 = load ptr, ptr %2, align 8, !tbaa !8
  %72 = getelementptr inbounds nuw %struct.Cut_OracleStruct_t_, ptr %71, i32 0, i32 7
  %73 = load ptr, ptr %72, align 8, !tbaa !24
  call void @Vec_IntFree(ptr noundef %73)
  br label %74

74:                                               ; preds = %70, %65
  %75 = load ptr, ptr %2, align 8, !tbaa !8
  %76 = getelementptr inbounds nuw %struct.Cut_OracleStruct_t_, ptr %75, i32 0, i32 8
  %77 = load ptr, ptr %76, align 8, !tbaa !26
  %78 = icmp ne ptr %77, null
  br i1 %78, label %79, label %83

79:                                               ; preds = %74
  %80 = load ptr, ptr %2, align 8, !tbaa !8
  %81 = getelementptr inbounds nuw %struct.Cut_OracleStruct_t_, ptr %80, i32 0, i32 8
  %82 = load ptr, ptr %81, align 8, !tbaa !26
  call void @Vec_IntFree(ptr noundef %82)
  br label %83

83:                                               ; preds = %79, %74
  %84 = load ptr, ptr %2, align 8, !tbaa !8
  %85 = getelementptr inbounds nuw %struct.Cut_OracleStruct_t_, ptr %84, i32 0, i32 9
  %86 = load ptr, ptr %85, align 8, !tbaa !36
  call void @Extra_MmFixedStop(ptr noundef %86)
  %87 = load ptr, ptr %2, align 8, !tbaa !8
  %88 = icmp ne ptr %87, null
  br i1 %88, label %89, label %91

89:                                               ; preds = %83
  %90 = load ptr, ptr %2, align 8, !tbaa !8
  call void @free(ptr noundef %90) #10
  store ptr null, ptr %2, align 8, !tbaa !8
  br label %92

91:                                               ; preds = %83
  br label %92

92:                                               ; preds = %91, %89
  ret void
}