; Function Attrs: nounwind uwtable
define void @Cut_OracleStop(ptr noundef captures(none) %0) local_unnamed_addr #0 {
  %puts = tail call i32 @puts(ptr nonnull dereferenceable(1) @str.1)
  %2 = getelementptr inbounds nuw i8, ptr %0, i64 96
  %3 = load i32, ptr %2, align 8, !tbaa !40
  %4 = getelementptr inbounds nuw i8, ptr %0, i64 100
  %5 = load i32, ptr %4, align 4, !tbaa !41
  %6 = sub nsw i32 %3, %5
  %7 = tail call i32 (ptr, ...) @printf(ptr noundef nonnull dereferenceable(1) @.str.2, i32 noundef %6, i32 noundef %5)
  tail call void (i32, ptr, ...) @Abc_Print(i32 poison, ptr noundef nonnull @.str.3, ptr noundef nonnull @.str.4)
  %8 = getelementptr inbounds nuw i8, ptr %0, i64 88
  %9 = load i64, ptr %8, align 8, !tbaa !42
  %10 = sitofp i64 %9 to double
  %11 = fdiv double %10, 1.000000e+06
  tail call void (i32, ptr, ...) @Abc_Print(i32 poison, ptr noundef nonnull @.str.5, double noundef %11)
  %12 = getelementptr inbounds nuw i8, ptr %0, i64 32
  %13 = load ptr, ptr %12, align 8, !tbaa !33
  %.not = icmp eq ptr %13, null
  br i1 %.not, label %18, label %14

14:                                               ; preds = %1
  %15 = getelementptr inbounds nuw i8, ptr %13, i64 8
  %16 = load ptr, ptr %15, align 8, !tbaa !27
  %.not.i = icmp eq ptr %16, null
  br i1 %.not.i, label %Vec_PtrFree.exit, label %17

17:                                               ; preds = %14
  tail call void @free(ptr noundef nonnull %16) #18
  br label %Vec_PtrFree.exit

Vec_PtrFree.exit:                                 ; preds = %14, %17
  tail call void @free(ptr noundef nonnull %13) #18
  br label %18

18:                                               ; preds = %Vec_PtrFree.exit, %1
  %19 = getelementptr inbounds nuw i8, ptr %0, i64 40
  %20 = load ptr, ptr %19, align 8, !tbaa !34
  %.not28 = icmp eq ptr %20, null
  br i1 %.not28, label %25, label %21

21:                                               ; preds = %18
  %22 = getelementptr inbounds nuw i8, ptr %20, i64 8
  %23 = load ptr, ptr %22, align 8, !tbaa !27
  %.not.i35 = icmp eq ptr %23, null
  br i1 %.not.i35, label %Vec_PtrFree.exit36, label %24

24:                                               ; preds = %21
  tail call void @free(ptr noundef nonnull %23) #18
  br label %Vec_PtrFree.exit36

Vec_PtrFree.exit36:                               ; preds = %21, %24
  tail call void @free(ptr noundef nonnull %20) #18
  br label %25

25:                                               ; preds = %Vec_PtrFree.exit36, %18
  %26 = getelementptr inbounds nuw i8, ptr %0, i64 24
  %27 = load ptr, ptr %26, align 8, !tbaa !28
  %.not29 = icmp eq ptr %27, null
  br i1 %.not29, label %32, label %28

28:                                               ; preds = %25
  %29 = getelementptr inbounds nuw i8, ptr %27, i64 8
  %30 = load ptr, ptr %29, align 8, !tbaa !27
  %.not.i37 = icmp eq ptr %30, null
  br i1 %.not.i37, label %Vec_PtrFree.exit38, label %31

31:                                               ; preds = %28
  tail call void @free(ptr noundef nonnull %30) #18
  br label %Vec_PtrFree.exit38

Vec_PtrFree.exit38:                               ; preds = %28, %31
  tail call void @free(ptr noundef nonnull %27) #18
  br label %32

32:                                               ; preds = %Vec_PtrFree.exit38, %25
  %33 = getelementptr inbounds nuw i8, ptr %0, i64 8
  %34 = load ptr, ptr %33, align 8, !tbaa !43
  %.not30 = icmp eq ptr %34, null
  br i1 %.not30, label %39, label %35

35:                                               ; preds = %32
  %36 = getelementptr inbounds nuw i8, ptr %34, i64 8
  %37 = load ptr, ptr %36, align 8, !tbaa !44
  %.not.i39 = icmp eq ptr %37, null
  br i1 %.not.i39, label %Vec_IntFree.exit, label %38

38:                                               ; preds = %35
  tail call void @free(ptr noundef nonnull %37) #18
  br label %Vec_IntFree.exit

Vec_IntFree.exit:                                 ; preds = %35, %38
  tail call void @free(ptr noundef nonnull %34) #18
  br label %39

39:                                               ; preds = %Vec_IntFree.exit, %32
  %40 = getelementptr inbounds nuw i8, ptr %0, i64 48
  %41 = load ptr, ptr %40, align 8, !tbaa !18
  %.not31 = icmp eq ptr %41, null
  br i1 %.not31, label %46, label %42

42:                                               ; preds = %39
  %43 = getelementptr inbounds nuw i8, ptr %41, i64 8
  %44 = load ptr, ptr %43, align 8, !tbaa !44
  %.not.i40 = icmp eq ptr %44, null
  br i1 %.not.i40, label %Vec_IntFree.exit41, label %45

45:                                               ; preds = %42
  tail call void @free(ptr noundef nonnull %44) #18
  br label %Vec_IntFree.exit41

Vec_IntFree.exit41:                               ; preds = %42, %45
  tail call void @free(ptr noundef nonnull %41) #18
  br label %46

46:                                               ; preds = %Vec_IntFree.exit41, %39
  %47 = getelementptr inbounds nuw i8, ptr %0, i64 56
  %48 = load ptr, ptr %47, align 8, !tbaa !20
  %.not32 = icmp eq ptr %48, null
  br i1 %.not32, label %53, label %49

49:                                               ; preds = %46
  %50 = getelementptr inbounds nuw i8, ptr %48, i64 8
  %51 = load ptr, ptr %50, align 8, !tbaa !44
  %.not.i42 = icmp eq ptr %51, null
  br i1 %.not.i42, label %Vec_IntFree.exit43, label %52

52:                                               ; preds = %49
  tail call void @free(ptr noundef nonnull %51) #18
  br label %Vec_IntFree.exit43

Vec_IntFree.exit43:                               ; preds = %49, %52
  tail call void @free(ptr noundef nonnull %48) #18
  br label %53

53:                                               ; preds = %Vec_IntFree.exit43, %46
  %54 = getelementptr inbounds nuw i8, ptr %0, i64 64
  %55 = load ptr, ptr %54, align 8, !tbaa !22
  %.not33 = icmp eq ptr %55, null
  br i1 %.not33, label %60, label %56

56:                                               ; preds = %53
  %57 = getelementptr inbounds nuw i8, ptr %55, i64 8
  %58 = load ptr, ptr %57, align 8, !tbaa !44
  %.not.i44 = icmp eq ptr %58, null
  br i1 %.not.i44, label %Vec_IntFree.exit45, label %59

59:                                               ; preds = %56
  tail call void @free(ptr noundef nonnull %58) #18
  br label %Vec_IntFree.exit45

Vec_IntFree.exit45:                               ; preds = %56, %59
  tail call void @free(ptr noundef nonnull %55) #18
  br label %60

60:                                               ; preds = %Vec_IntFree.exit45, %53
  %61 = getelementptr inbounds nuw i8, ptr %0, i64 72
  %62 = load ptr, ptr %61, align 8, !tbaa !39
  tail call void @Extra_MmFixedStop(ptr noundef %62) #18
  tail call void @free(ptr noundef nonnull %0) #18
  ret void
}